target datalayout = "e-m:e-p270:32:32-p271:32:32-p272:64:64-i64:64-i128:128-f80:128-n8:16:32:64-S128"
target triple = "x86_64-pc-linux-gnu"

%struct.decNumber = type { i32, i32, i8, [1 x i16] }

@DECPOWERS = external constant [10 x i32], align 16

; Function Attrs: nounwind uwtable
define dso_local i32 @decNumberToUInt32(ptr noundef %0, ptr noundef %1) #0 {
  %3 = alloca i32, align 4
  %4 = alloca ptr, align 8
  %5 = alloca ptr, align 8
  %6 = alloca i32, align 4
  %7 = alloca ptr, align 8
  %8 = alloca i32, align 4
  %9 = alloca i32, align 4
  %10 = alloca i32, align 4
  store ptr %0, ptr %4, align 8, !tbaa !4
  store ptr %1, ptr %5, align 8, !tbaa !4
  %11 = load ptr, ptr %4, align 8, !tbaa !4
  %12 = getelementptr inbounds nuw %struct.decNumber, ptr %11, i32 0, i32 2
  %13 = load i8, ptr %12, align 4, !tbaa !10
  %14 = zext i8 %13 to i32
  %15 = and i32 %14, 112
  %16 = icmp ne i32 %15, 0
  br i1 %16, label %53, label %17

17:                                               ; preds = %2
  %18 = load ptr, ptr %4, align 8, !tbaa !4
  %19 = getelementptr inbounds nuw %struct.decNumber, ptr %18, i32 0, i32 0
  %20 = load i32, ptr %19, align 4, !tbaa !18
  %21 = icmp sgt i32 %20, 10
  br i1 %21, label %53, label %22

22:                                               ; preds = %17
  %23 = load ptr, ptr %4, align 8, !tbaa !4
  %24 = getelementptr inbounds nuw %struct.decNumber, ptr %23, i32 0, i32 1
  %25 = load i32, ptr %24, align 4, !tbaa !19
  %26 = icmp ne i32 %25, 0
  br i1 %26, label %53, label %27

27:                                               ; preds = %22
  %28 = load ptr, ptr %4, align 8, !tbaa !4
  %29 = getelementptr inbounds nuw %struct.decNumber, ptr %28, i32 0, i32 2
  %30 = load i8, ptr %29, align 4, !tbaa !10
  %31 = zext i8 %30 to i32
  %32 = and i32 %31, 128
  %33 = icmp ne i32 %32, 0
  br i1 %33, label %34, label %54

34:                                               ; preds = %27
  %35 = load ptr, ptr %4, align 8, !tbaa !4
  %36 = getelementptr inbounds nuw %struct.decNumber, ptr %35, i32 0, i32 3
  %37 = getelementptr inbounds [1 x i16], ptr %36, i64 0, i64 0
  %38 = load i16, ptr %37, align 2, !tbaa !14
  %39 = zext i16 %38 to i32
  %40 = icmp eq i32 %39, 0
  br i1 %40, label %41, label %53

41:                                               ; preds = %34
  %42 = load ptr, ptr %4, align 8, !tbaa !4
  %43 = getelementptr inbounds nuw %struct.decNumber, ptr %42, i32 0, i32 0
  %44 = load i32, ptr %43, align 4, !tbaa !18
  %45 = icmp eq i32 %44, 1
  br i1 %45, label %46, label %53

46:                                               ; preds = %41
  %47 = load ptr, ptr %4, align 8, !tbaa !4
  %48 = getelementptr inbounds nuw %struct.decNumber, ptr %47, i32 0, i32 2
  %49 = load i8, ptr %48, align 4, !tbaa !10
  %50 = zext i8 %49 to i32
  %51 = and i32 %50, 112
  %52 = icmp eq i32 %51, 0
  br i1 %52, label %54, label %53

53:                                               ; preds = %46, %41, %34, %22, %17, %2
  br label %112

54:                                               ; preds = %46, %27
  call void @llvm.lifetime.start.p0(i64 4, ptr %6) #7
  call void @llvm.lifetime.start.p0(i64 8, ptr %7) #7
  call void @llvm.lifetime.start.p0(i64 4, ptr %8) #7
  store i32 0, ptr %8, align 4, !tbaa !8
  call void @llvm.lifetime.start.p0(i64 4, ptr %9) #7
  %55 = load ptr, ptr %4, align 8, !tbaa !4
  %56 = getelementptr inbounds nuw %struct.decNumber, ptr %55, i32 0, i32 3
  %57 = getelementptr inbounds [1 x i16], ptr %56, i64 0, i64 0
  store ptr %57, ptr %7, align 8, !tbaa !12
  %58 = load ptr, ptr %7, align 8, !tbaa !12
  %59 = load i16, ptr %58, align 2, !tbaa !14
  %60 = zext i16 %59 to i32
  store i32 %60, ptr %9, align 4, !tbaa !8
  %61 = load i32, ptr %9, align 4, !tbaa !8
  %62 = udiv i32 %61, 10
  store i32 %62, ptr %8, align 4, !tbaa !8
  %63 = load i32, ptr %9, align 4, !tbaa !8
  %64 = urem i32 %63, 10
  store i32 %64, ptr %9, align 4, !tbaa !8
  %65 = load ptr, ptr %7, align 8, !tbaa !12
  %66 = getelementptr inbounds nuw i16, ptr %65, i32 1
  store ptr %66, ptr %7, align 8, !tbaa !12
  store i32 3, ptr %6, align 4, !tbaa !8
  br label %67

67:                                               ; preds = %85, %54
  %68 = load i32, ptr %6, align 4, !tbaa !8
  %69 = load ptr, ptr %4, align 8, !tbaa !4
  %70 = getelementptr inbounds nuw %struct.decNumber, ptr %69, i32 0, i32 0
  %71 = load i32, ptr %70, align 4, !tbaa !18
  %72 = icmp slt i32 %68, %71
  br i1 %72, label %73, label %90

73:                                               ; preds = %67
  %74 = load ptr, ptr %7, align 8, !tbaa !12
  %75 = load i16, ptr %74, align 2, !tbaa !14
  %76 = zext i16 %75 to i32
  %77 = load i32, ptr %6, align 4, !tbaa !8
  %78 = sub nsw i32 %77, 1
  %79 = sext i32 %78 to i64
  %80 = getelementptr inbounds [10 x i32], ptr @DECPOWERS, i64 0, i64 %79
  %81 = load i32, ptr %80, align 4, !tbaa !8
  %82 = mul i32 %76, %81
  %83 = load i32, ptr %8, align 4, !tbaa !8
  %84 = add i32 %83, %82
  store i32 %84, ptr %8, align 4, !tbaa !8
  br label %85

85:                                               ; preds = %73
  %86 = load ptr, ptr %7, align 8, !tbaa !12
  %87 = getelementptr inbounds nuw i16, ptr %86, i32 1
  store ptr %87, ptr %7, align 8, !tbaa !12
  %88 = load i32, ptr %6, align 4, !tbaa !8
  %89 = add nsw i32 %88, 3
  store i32 %89, ptr %6, align 4, !tbaa !8
  br label %67, !llvm.loop !22

90:                                               ; preds = %67
  %91 = load i32, ptr %8, align 4, !tbaa !8
  %92 = icmp ugt i32 %91, 429496729
  br i1 %92, label %99, label %93

93:                                               ; preds = %90
  %94 = load i32, ptr %8, align 4, !tbaa !8
  %95 = icmp eq i32 %94, 429496729
  br i1 %95, label %96, label %100

96:                                               ; preds = %93
  %97 = load i32, ptr %9, align 4, !tbaa !8
  %98 = icmp ugt i32 %97, 5
  br i1 %98, label %99, label %100

99:                                               ; preds = %96, %90
  br label %108

100:                                              ; preds = %96, %93
  %101 = load i32, ptr %8, align 4, !tbaa !8
  %102 = shl i32 %101, 1
  %103 = load i32, ptr %8, align 4, !tbaa !8
  %104 = shl i32 %103, 3
  %105 = add i32 %102, %104
  %106 = load i32, ptr %9, align 4, !tbaa !8
  %107 = add i32 %105, %106
  store i32 %107, ptr %3, align 4
  store i32 1, ptr %10, align 4
  br label %109

108:                                              ; preds = %99
  store i32 0, ptr %10, align 4
  br label %109

109:                                              ; preds = %108, %100
  call void @llvm.lifetime.end.p0(i64 4, ptr %9) #7
  call void @llvm.lifetime.end.p0(i64 4, ptr %8) #7
  call void @llvm.lifetime.end.p0(i64 8, ptr %7) #7
  call void @llvm.lifetime.end.p0(i64 4, ptr %6) #7
  %110 = load i32, ptr %10, align 4
  switch i32 %110, label %117 [
    i32 0, label %111
    i32 1, label %115
  ]

111:                                              ; preds = %109
  br label %112

112:                                              ; preds = %111, %53
  %113 = load ptr, ptr %5, align 8, !tbaa !4
  %114 = call ptr @decContextSetStatus(ptr noundef %113, i32 noundef 128)
  store i32 0, ptr %3, align 4
  br label %115

115:                                              ; preds = %112, %109
  %116 = load i32, ptr %3, align 4
  ret i32 %116

117:                                              ; preds = %109
  unreachable
}