; Function Attrs: nounwind uwtable
define dso_local i32 @decNumberToUInt32(ptr noundef readonly captures(none) %0, ptr noundef %1) local_unnamed_addr #4 {
  %3 = getelementptr inbounds nuw i8, ptr %0, i64 8
  %4 = load i8, ptr %3, align 4, !tbaa !4
  %5 = and i8 %4, 112
  %.not = icmp eq i8 %5, 0
  br i1 %.not, label %6, label %.thread

6:                                                ; preds = %2
  %7 = load i32, ptr %0, align 4, !tbaa !10
  %8 = icmp sgt i32 %7, 10
  br i1 %8, label %.thread, label %9

9:                                                ; preds = %6
  %10 = getelementptr inbounds nuw i8, ptr %0, i64 4
  %11 = load i32, ptr %10, align 4, !tbaa !9
  %.not34 = icmp eq i32 %11, 0
  br i1 %.not34, label %12, label %.thread

12:                                               ; preds = %9
  %.not35 = icmp sgt i8 %4, -1
  %.phi.trans.insert = getelementptr inbounds nuw i8, ptr %0, i64 10
  %.pre = load i16, ptr %.phi.trans.insert, align 2, !tbaa !11
  br i1 %.not35, label %16, label %13

13:                                               ; preds = %12
  %14 = icmp eq i16 %.pre, 0
  %15 = icmp eq i32 %7, 1
  %or.cond36 = and i1 %15, %14
  br i1 %or.cond36, label %.thread55, label %.thread

16:                                               ; preds = %12
  %17 = udiv i16 %.pre, 10
  %.zext = zext nneg i16 %17 to i32
  %18 = urem i16 %.pre, 10
  %19 = icmp sgt i32 %7, 3
  br i1 %19, label %.lr.ph.preheader, label %.thread55

.lr.ph.preheader:                                 ; preds = %16
  %20 = getelementptr inbounds nuw i8, ptr %0, i64 12
  %21 = zext nneg i32 %7 to i64
  br label %.lr.ph

.lr.ph:                                           ; preds = %.lr.ph.preheader, %.lr.ph
  %indvars.iv = phi i64 [ 3, %.lr.ph.preheader ], [ %indvars.iv.next, %.lr.ph ]
  %.02844 = phi i32 [ %.zext, %.lr.ph.preheader ], [ %28, %.lr.ph ]
  %.02943 = phi ptr [ %20, %.lr.ph.preheader ], [ %29, %.lr.ph ]
  %22 = load i16, ptr %.02943, align 2, !tbaa !11
  %23 = zext i16 %22 to i32
  %24 = add nsw i64 %indvars.iv, -1
  %25 = getelementptr inbounds [10 x i32], ptr @DECPOWERS, i64 0, i64 %24
  %26 = load i32, ptr %25, align 4, !tbaa !16
  %27 = mul i32 %26, %23
  %28 = add i32 %27, %.02844
  %29 = getelementptr inbounds nuw i8, ptr %.02943, i64 2
  %indvars.iv.next = add nuw nsw i64 %indvars.iv, 3
  %30 = icmp samesign ult i64 %indvars.iv.next, %21
  br i1 %30, label %.lr.ph, label %._crit_edge, !llvm.loop !18

._crit_edge:                                      ; preds = %.lr.ph
  %31 = icmp ugt i32 %28, 429496729
  br i1 %31, label %.thread, label %32

32:                                               ; preds = %._crit_edge
  %33 = icmp eq i32 %28, 429496729
  %34 = icmp samesign ugt i16 %18, 5
  %or.cond = select i1 %33, i1 %34, i1 false
  br i1 %or.cond, label %.thread, label %.thread55

.thread55:                                        ; preds = %16, %13, %32
  %.zext41505360.shrunk = phi i16 [ %18, %32 ], [ %18, %16 ], [ 0, %13 ]
  %.028.lcssa5459 = phi i32 [ %28, %32 ], [ %.zext, %16 ], [ 0, %13 ]
  %.zext41505360 = zext nneg i16 %.zext41505360.shrunk to i32
  %35 = mul nuw i32 %.028.lcssa5459, 10
  %36 = add i32 %35, %.zext41505360
  br label %38

.thread:                                          ; preds = %32, %._crit_edge, %2, %6, %9, %13
  %37 = tail call ptr @decContextSetStatus(ptr noundef %1, i32 noundef 128) #18
  br label %38

38:                                               ; preds = %.thread55, %.thread
  %.1 = phi i32 [ 0, %.thread ], [ %36, %.thread55 ]
  ret i32 %.1
}